; Function Attrs: mustprogress nofree norecurse nosync nounwind willreturn memory(argmem: read) uwtable
define hidden noundef zeroext i1 @_ZNK3sat11npn3_finder10quaternary2eqclERKS1_S4_(ptr nocapture noundef nonnull readnone align 1 dereferenceable(1) %this, ptr nocapture noundef nonnull readonly align 8 dereferenceable(24) %a, ptr nocapture noundef nonnull readonly align 8 dereferenceable(24) %b) local_unnamed_addr #6 align 2 {
entry:
  %0 = load i32, ptr %a, align 8
  %1 = load i32, ptr %b, align 8
  %cmp.i = icmp eq i32 %0, %1
  br i1 %cmp.i, label %land.lhs.true, label %land.end

land.lhs.true:                                    ; preds = %entry
  %x = getelementptr inbounds i8, ptr %a, i64 4
  %x3 = getelementptr inbounds i8, ptr %b, i64 4
  %2 = load i32, ptr %x, align 4
  %3 = load i32, ptr %x3, align 4
  %cmp.i7 = icmp eq i32 %2, %3
  br i1 %cmp.i7, label %land.lhs.true5, label %land.end

land.lhs.true5:                                   ; preds = %land.lhs.true
  %y = getelementptr inbounds i8, ptr %a, i64 8
  %y6 = getelementptr inbounds i8, ptr %b, i64 8
  %4 = load i32, ptr %y, align 8
  %5 = load i32, ptr %y6, align 8
  %cmp.i8 = icmp eq i32 %4, %5
  br i1 %cmp.i8, label %land.rhs, label %land.end

land.rhs:                                         ; preds = %land.lhs.true5
  %z = getelementptr inbounds i8, ptr %a, i64 12
  %z8 = getelementptr inbounds i8, ptr %b, i64 12
  %6 = load i32, ptr %z, align 4
  %7 = load i32, ptr %z8, align 4
  %cmp.i9 = icmp eq i32 %6, %7
  br label %land.end

land.end:                                         ; preds = %land.rhs, %land.lhs.true5, %land.lhs.true, %entry
  %8 = phi i1 [ false, %land.lhs.true5 ], [ false, %land.lhs.true ], [ false, %entry ], [ %cmp.i9, %land.rhs ]
  ret i1 %8
}